target datalayout = "e-m:e-p270:32:32-p271:32:32-p272:64:64-i64:64-i128:128-f80:128-n8:16:32:64-S128"
target triple = "x86_64-pc-linux-gnu"

%struct.H5VL_connector_t = type { ptr, i64, ptr, ptr }
%struct.H5VL_object_t = type { ptr, ptr, i64 }

@.str = private unnamed_addr constant [106 x i8] c"generated/home/dtcxzyw/WorkSpace/Projects/compilers/llvm-opt-benchmark/bench/hdf5/hdf5/src/H5VLcallback.c\00", align 1
@H5E_CANTSET_g = external global i64, align 8
@H5E_VOL_g = external global i64, align 8
@H5VL_init_g = external global i8, align 1
@H5_libterm_g = external global i8, align 1
@H5E_FUNC_g = external global i64, align 8
@H5E_CANTINIT_g = external global i64, align 8
@.str.5 = private unnamed_addr constant [32 x i8] c"interface initialization failed\00", align 1
@.str.24 = private unnamed_addr constant [27 x i8] c"can't set VOL wrapper info\00", align 1
@H5E_CANTRESET_g = external global i64, align 8
@.str.26 = private unnamed_addr constant [29 x i8] c"can't reset VOL wrapper info\00", align 1
@__func__.H5VL_attr_specific = private unnamed_addr constant [19 x i8] c"H5VL_attr_specific\00", align 1
@H5E_CANTOPERATE_g = external global i64, align 8
@.str.37 = private unnamed_addr constant [48 x i8] c"unable to execute attribute 'specific' callback\00", align 1

; Function Attrs: nounwind uwtable
define i32 @H5VL_attr_specific(ptr noundef %0, ptr noundef %1, ptr noundef %2, i64 noundef %3, ptr noundef %4) #0 {
  %6 = alloca ptr, align 8
  %7 = alloca ptr, align 8
  %8 = alloca ptr, align 8
  %9 = alloca i64, align 8
  %10 = alloca ptr, align 8
  %11 = alloca i8, align 1
  %12 = alloca i32, align 4
  %13 = alloca i8, align 1
  store ptr %0, ptr %6, align 8, !tbaa !58
  store ptr %1, ptr %7, align 8, !tbaa !60
  store ptr %2, ptr %8, align 8, !tbaa !72
  store i64 %3, ptr %9, align 8, !tbaa !3
  store ptr %4, ptr %10, align 8, !tbaa !42
  call void @llvm.lifetime.start.p0(i64 1, ptr %11) #8
  store i8 0, ptr %11, align 1, !tbaa !9
  call void @llvm.lifetime.start.p0(i64 4, ptr %12) #8
  store i32 0, ptr %12, align 4, !tbaa !7
  call void @llvm.lifetime.start.p0(i64 1, ptr %13) #8
  store i8 0, ptr %13, align 1, !tbaa !9
  %14 = load i8, ptr @H5VL_init_g, align 1, !tbaa !9, !range !14, !noundef !15
  %15 = trunc i8 %14 to i1
  br i1 %15, label %20, label %16

16:                                               ; preds = %5
  %17 = load i8, ptr @H5_libterm_g, align 1, !tbaa !9, !range !14, !noundef !15
  %18 = trunc i8 %17 to i1
  %19 = xor i1 %18, true
  br label %20

20:                                               ; preds = %16, %5
  %21 = phi i1 [ false, %5 ], [ %19, %16 ]
  %22 = xor i1 %21, true
  %23 = xor i1 %22, true
  %24 = zext i1 %23 to i32
  %25 = sext i32 %24 to i64
  %26 = call i64 @llvm.expect.i64(i64 %25, i64 0)
  %27 = icmp ne i64 %26, 0
  br i1 %27, label %28, label %51

28:                                               ; preds = %20
  store i8 1, ptr @H5VL_init_g, align 1, !tbaa !9
  %29 = call i32 @H5VL__init_package()
  %30 = icmp slt i32 %29, 0
  br i1 %30, label %31, label %50

31:                                               ; preds = %28
  store i8 0, ptr @H5VL_init_g, align 1, !tbaa !9
  br label %32

32:                                               ; preds = %31
  br label %33

33:                                               ; preds = %32
  br label %34

34:                                               ; preds = %33
  %35 = load i64, ptr @H5E_FUNC_g, align 8, !tbaa !3
  %36 = load i64, ptr @H5E_CANTINIT_g, align 8, !tbaa !3
  %37 = call i32 (ptr, ptr, i32, i64, i64, ptr, ...) @H5E_printf_stack(ptr noundef @.str, ptr noundef @__func__.H5VL_attr_specific, i32 noundef 1607, i64 noundef %35, i64 noundef %36, ptr noundef @.str.5)
  br label %38

38:                                               ; preds = %34
  br label %39

39:                                               ; preds = %38
  store i8 1, ptr %13, align 1, !tbaa !9
  %40 = load i8, ptr %13, align 1, !tbaa !9, !range !14, !noundef !15
  %41 = trunc i8 %40 to i1
  %42 = zext i1 %41 to i8
  store i8 %42, ptr %13, align 1, !tbaa !9
  br label %43

43:                                               ; preds = %39
  br label %44

44:                                               ; preds = %43
  br label %45

45:                                               ; preds = %44
  store i32 -1, ptr %12, align 4, !tbaa !7
  br label %112

46:                                               ; No predecessors!
  br label %47

47:                                               ; preds = %46
  br label %48

48:                                               ; preds = %47
  br label %49

49:                                               ; preds = %48
  br label %50

50:                                               ; preds = %49, %28
  br label %51

51:                                               ; preds = %50, %20
  %52 = load i8, ptr @H5VL_init_g, align 1, !tbaa !9, !range !14, !noundef !15
  %53 = trunc i8 %52 to i1
  br i1 %53, label %58, label %54

54:                                               ; preds = %51
  %55 = load i8, ptr @H5_libterm_g, align 1, !tbaa !9, !range !14, !noundef !15
  %56 = trunc i8 %55 to i1
  %57 = xor i1 %56, true
  br label %58

58:                                               ; preds = %54, %51
  %59 = phi i1 [ true, %51 ], [ %57, %54 ]
  %60 = xor i1 %59, true
  %61 = xor i1 %60, true
  %62 = zext i1 %61 to i32
  %63 = sext i32 %62 to i64
  %64 = call i64 @llvm.expect.i64(i64 %63, i64 1)
  %65 = icmp ne i64 %64, 0
  br i1 %65, label %66, label %135

66:                                               ; preds = %58
  %67 = load ptr, ptr %6, align 8, !tbaa !58
  %68 = call i32 @H5VL_set_vol_wrapper(ptr noundef %67)
  %69 = icmp slt i32 %68, 0
  br i1 %69, label %70, label %89

70:                                               ; preds = %66
  br label %71

71:                                               ; preds = %70
  br label %72

72:                                               ; preds = %71
  br label %73

73:                                               ; preds = %72
  %74 = load i64, ptr @H5E_VOL_g, align 8, !tbaa !3
  %75 = load i64, ptr @H5E_CANTSET_g, align 8, !tbaa !3
  %76 = call i32 (ptr, ptr, i32, i64, i64, ptr, ...) @H5E_printf_stack(ptr noundef @.str, ptr noundef @__func__.H5VL_attr_specific, i32 noundef 1611, i64 noundef %74, i64 noundef %75, ptr noundef @.str.24)
  br label %77

77:                                               ; preds = %73
  br label %78

78:                                               ; preds = %77
  store i8 1, ptr %13, align 1, !tbaa !9
  %79 = load i8, ptr %13, align 1, !tbaa !9, !range !14, !noundef !15
  %80 = trunc i8 %79 to i1
  %81 = zext i1 %80 to i8
  store i8 %81, ptr %13, align 1, !tbaa !9
  br label %82

82:                                               ; preds = %78
  br label %83

83:                                               ; preds = %82
  br label %84

84:                                               ; preds = %83
  store i32 -1, ptr %12, align 4, !tbaa !7
  br label %112

85:                                               ; No predecessors!
  br label %86

86:                                               ; preds = %85
  br label %87

87:                                               ; preds = %86
  br label %88

88:                                               ; preds = %87
  br label %89

89:                                               ; preds = %88, %66
  store i8 1, ptr %11, align 1, !tbaa !9
  %90 = load ptr, ptr %6, align 8, !tbaa !58
  %91 = getelementptr inbounds nuw %struct.H5VL_object_t, ptr %90, i32 0, i32 0
  %92 = load ptr, ptr %91, align 8, !tbaa !62
  %93 = load ptr, ptr %7, align 8, !tbaa !60
  %94 = load ptr, ptr %6, align 8, !tbaa !58
  %95 = getelementptr inbounds nuw %struct.H5VL_object_t, ptr %94, i32 0, i32 1
  %96 = load ptr, ptr %95, align 8, !tbaa !64
  %97 = getelementptr inbounds nuw %struct.H5VL_connector_t, ptr %96, i32 0, i32 0
  %98 = load ptr, ptr %97, align 8, !tbaa !16
  %99 = load ptr, ptr %8, align 8, !tbaa !72
  %100 = load i64, ptr %9, align 8, !tbaa !3
  %101 = load ptr, ptr %10, align 8, !tbaa !42
  %102 = call i32 @H5VL__attr_specific(ptr noundef %92, ptr noundef %93, ptr noundef %98, ptr noundef %99, i64 noundef %100, ptr noundef %101)
  store i32 %102, ptr %12, align 4, !tbaa !7
  %103 = icmp slt i32 %102, 0
  br i1 %103, label %104, label %111

104:                                              ; preds = %89
  br label %105

105:                                              ; preds = %104
  %106 = load i64, ptr @H5E_VOL_g, align 8, !tbaa !3
  %107 = load i64, ptr @H5E_CANTOPERATE_g, align 8, !tbaa !3
  %108 = call i32 (ptr, ptr, i32, i64, i64, ptr, ...) @H5E_printf_stack(ptr noundef @.str, ptr noundef @__func__.H5VL_attr_specific, i32 noundef 1618, i64 noundef %106, i64 noundef %107, ptr noundef @.str.37)
  br label %109

109:                                              ; preds = %105
  br label %110

110:                                              ; preds = %109
  br label %111

111:                                              ; preds = %110, %89
  br label %112

112:                                              ; preds = %111, %84, %45
  %113 = load i8, ptr %11, align 1, !tbaa !9, !range !14, !noundef !15
  %114 = trunc i8 %113 to i1
  br i1 %114, label %115, label %134

115:                                              ; preds = %112
  %116 = call i32 @H5VL_reset_vol_wrapper()
  %117 = icmp slt i32 %116, 0
  br i1 %117, label %118, label %134

118:                                              ; preds = %115
  br label %119

119:                                              ; preds = %118
  br label %120

120:                                              ; preds = %119
  br label %121

121:                                              ; preds = %120
  %122 = load i64, ptr @H5E_VOL_g, align 8, !tbaa !3
  %123 = load i64, ptr @H5E_CANTRESET_g, align 8, !tbaa !3
  %124 = call i32 (ptr, ptr, i32, i64, i64, ptr, ...) @H5E_printf_stack(ptr noundef @.str, ptr noundef @__func__.H5VL_attr_specific, i32 noundef 1623, i64 noundef %122, i64 noundef %123, ptr noundef @.str.26)
  br label %125

125:                                              ; preds = %121
  br label %126

126:                                              ; preds = %125
  store i8 1, ptr %13, align 1, !tbaa !9
  %127 = load i8, ptr %13, align 1, !tbaa !9, !range !14, !noundef !15
  %128 = trunc i8 %127 to i1
  %129 = zext i1 %128 to i8
  store i8 %129, ptr %13, align 1, !tbaa !9
  br label %130

130:                                              ; preds = %126
  br label %131

131:                                              ; preds = %130
  store i32 -1, ptr %12, align 4, !tbaa !7
  br label %132

132:                                              ; preds = %131
  br label %133

133:                                              ; preds = %132
  br label %134

134:                                              ; preds = %133, %115, %112
  br label %135

135:                                              ; preds = %134, %58
  %136 = load i32, ptr %12, align 4, !tbaa !7
  call void @llvm.lifetime.end.p0(i64 1, ptr %13) #8
  call void @llvm.lifetime.end.p0(i64 4, ptr %12) #8
  call void @llvm.lifetime.end.p0(i64 1, ptr %11) #8
  ret i32 %136
}